target datalayout = "e-m:e-p270:32:32-p271:32:32-p272:64:64-i64:64-i128:128-f80:128-n8:16:32:64-S128"
target triple = "x86_64-pc-linux-gnu"

@.str.4 = private unnamed_addr constant [22 x i8] c"Can't remove path: %s\00", align 1

; Function Attrs: nounwind uwtable
define hidden zeroext i1 @SDL_SYS_RemovePath(ptr noundef %0) #0 {
  %2 = alloca i1, align 1
  %3 = alloca ptr, align 8
  %4 = alloca i32, align 4
  %5 = alloca i32, align 4
  store ptr %0, ptr %3, align 8
  call void @llvm.lifetime.start.p0(i64 4, ptr %4) #6
  %6 = load ptr, ptr %3, align 8
  %7 = call i32 @remove(ptr noundef %6) #6
  store i32 %7, ptr %4, align 4
  %8 = load i32, ptr %4, align 4
  %9 = icmp slt i32 %8, 0
  br i1 %9, label %10, label %20

10:                                               ; preds = %1
  %11 = call ptr @__errno_location() #7
  %12 = load i32, ptr %11, align 4
  %13 = icmp eq i32 %12, 2
  br i1 %13, label %14, label %15

14:                                               ; preds = %10
  store i1 true, ptr %2, align 1
  store i32 1, ptr %5, align 4
  br label %21

15:                                               ; preds = %10
  %16 = call ptr @__errno_location() #7
  %17 = load i32, ptr %16, align 4
  %18 = call ptr @strerror(i32 noundef %17) #6
  %19 = call zeroext i1 (ptr, ...) @SDL_SetError_REAL(ptr noundef @.str.4, ptr noundef %18)
  store i1 %19, ptr %2, align 1
  store i32 1, ptr %5, align 4
  br label %21

20:                                               ; preds = %1
  store i1 true, ptr %2, align 1
  store i32 1, ptr %5, align 4
  br label %21

21:                                               ; preds = %20, %15, %14
  call void @llvm.lifetime.end.p0(i64 4, ptr %4) #6
  %22 = load i1, ptr %2, align 1
  ret i1 %22
}