; Function Attrs: nounwind uwtable
define hidden zeroext i1 @SDL_SYS_RemovePath(ptr noundef readonly captures(none) %0) local_unnamed_addr #0 {
  %2 = tail call i32 @remove(ptr noundef %0) #7
  %3 = icmp slt i32 %2, 0
  br i1 %3, label %4, label %11

4:                                                ; preds = %1
  %5 = tail call ptr @__errno_location() #8
  %6 = load i32, ptr %5, align 4
  %7 = icmp eq i32 %6, 2
  br i1 %7, label %11, label %8

8:                                                ; preds = %4
  %9 = tail call ptr @strerror(i32 noundef %6) #7
  %10 = tail call zeroext i1 (ptr, ...) @SDL_SetError_REAL(ptr noundef nonnull @.str.4, ptr noundef %9) #7
  br label %11

11:                                               ; preds = %1, %4, %8
  %.0 = phi i1 [ %10, %8 ], [ true, %4 ], [ true, %1 ]
  ret i1 %.0
}